target datalayout = "e-m:e-p270:32:32-p271:32:32-p272:64:64-i64:64-i128:128-f80:128-n8:16:32:64-S128"
target triple = "x86_64-pc-linux-gnu"

%"class.llvm::SmallVectorBase" = type { ptr, i32, i32 }
%"class.clang::GlobalModuleIndex" = type { %"class.std::unique_ptr", ptr, %"class.llvm::SmallVector.2", %"class.llvm::DenseMap", %"class.llvm::StringMap", i32, i32 }
%"class.std::unique_ptr" = type { %"struct.std::__uniq_ptr_data" }
%"struct.std::__uniq_ptr_data" = type { %"class.std::__uniq_ptr_impl" }
%"class.std::__uniq_ptr_impl" = type { %"class.std::tuple" }
%"class.std::tuple" = type { %"struct.std::_Tuple_impl" }
%"struct.std::_Tuple_impl" = type { %"struct.std::_Head_base.1" }
%"struct.std::_Head_base.1" = type { ptr }
%"class.llvm::SmallVector.2" = type { %"class.llvm::SmallVectorImpl.3", %"struct.llvm::SmallVectorStorage.6" }
%"class.llvm::SmallVectorImpl.3" = type { %"class.llvm::SmallVectorTemplateBase.4" }
%"class.llvm::SmallVectorTemplateBase.4" = type { %"class.llvm::SmallVectorTemplateCommon.5" }
%"class.llvm::SmallVectorTemplateCommon.5" = type { %"class.llvm::SmallVectorBase" }
%"struct.llvm::SmallVectorStorage.6" = type { [1408 x i8] }
%"class.llvm::DenseMap" = type <{ ptr, i32, i32, i32, [4 x i8] }>
%"class.llvm::StringMap" = type { %"class.llvm::StringMapImpl" }
%"class.llvm::StringMapImpl" = type { ptr, i32, i32, i32, i32 }

@stderr = external global ptr, align 8
@.str.4 = private unnamed_addr constant [37 x i8] c"*** Global Module Index Statistics:\0A\00", align 1
@.str.5 = private unnamed_addr constant [47 x i8] c"  %u / %u identifier lookups succeeded (%f%%)\0A\00", align 1
@.str.6 = private unnamed_addr constant [2 x i8] c"\0A\00", align 1

; Function Attrs: mustprogress nounwind uwtable
define dso_local void @_ZN5clang17GlobalModuleIndex10printStatsEv(ptr noundef nonnull align 8 dereferenceable(1496) %0) #0 align 2 {
  %2 = alloca ptr, align 8
  store ptr %0, ptr %2, align 8
  %3 = load ptr, ptr %2, align 8
  %4 = load ptr, ptr @stderr, align 8
  %5 = call i32 (ptr, ptr, ...) @fprintf(ptr noundef %4, ptr noundef @.str.4) #17
  %6 = getelementptr inbounds nuw %"class.clang::GlobalModuleIndex", ptr %3, i32 0, i32 5
  %7 = load i32, ptr %6, align 8
  %8 = icmp ne i32 %7, 0
  br i1 %8, label %9, label %24

9:                                                ; preds = %1
  %10 = load ptr, ptr @stderr, align 8
  %11 = getelementptr inbounds nuw %"class.clang::GlobalModuleIndex", ptr %3, i32 0, i32 6
  %12 = load i32, ptr %11, align 4
  %13 = getelementptr inbounds nuw %"class.clang::GlobalModuleIndex", ptr %3, i32 0, i32 5
  %14 = load i32, ptr %13, align 8
  %15 = getelementptr inbounds nuw %"class.clang::GlobalModuleIndex", ptr %3, i32 0, i32 6
  %16 = load i32, ptr %15, align 4
  %17 = uitofp i32 %16 to double
  %18 = fmul double %17, 1.000000e+02
  %19 = getelementptr inbounds nuw %"class.clang::GlobalModuleIndex", ptr %3, i32 0, i32 5
  %20 = load i32, ptr %19, align 8
  %21 = uitofp i32 %20 to double
  %22 = fdiv double %18, %21
  %23 = call i32 (ptr, ptr, ...) @fprintf(ptr noundef %10, ptr noundef @.str.5, i32 noundef %12, i32 noundef %14, double noundef %22) #17
  br label %24

24:                                               ; preds = %9, %1
  %25 = load ptr, ptr @stderr, align 8
  %26 = call i32 (ptr, ptr, ...) @fprintf(ptr noundef %25, ptr noundef @.str.6) #17
  ret void
}