; Function Attrs: cold mustprogress nofree nounwind uwtable
define dso_local void @_ZN5clang17GlobalModuleIndex10printStatsEv(ptr nocapture noundef nonnull readonly align 8 dereferenceable(1496) %0) local_unnamed_addr #6 align 2 {
  %2 = load ptr, ptr @stderr, align 8
  %3 = tail call i64 @fwrite(ptr nonnull @.str.4, i64 36, i64 1, ptr %2) #30
  %4 = getelementptr inbounds nuw i8, ptr %0, i64 1488
  %5 = load i32, ptr %4, align 8
  %.not = icmp eq i32 %5, 0
  br i1 %.not, label %15, label %6

6:                                                ; preds = %1
  %7 = load ptr, ptr @stderr, align 8
  %8 = getelementptr inbounds nuw i8, ptr %0, i64 1492
  %9 = load i32, ptr %8, align 4
  %10 = uitofp i32 %9 to double
  %11 = fmul double %10, 1.000000e+02
  %12 = uitofp i32 %5 to double
  %13 = fdiv double %11, %12
  %14 = tail call i32 (ptr, ptr, ...) @fprintf(ptr noundef %7, ptr noundef nonnull @.str.5, i32 noundef %9, i32 noundef %5, double noundef %13) #31
  br label %15

15:                                               ; preds = %6, %1
  %16 = load ptr, ptr @stderr, align 8
  %fputc = tail call i32 @fputc(i32 10, ptr %16)
  ret void
}